ccopy_reg
_reconstructor
p0
(cnltk.tag.brill
BrillTagger
p1
c__builtin__
object
p2
Ntp3
Rp4
(dp5
S'_initial_tagger'
p6
g0
(cnltk.tag.sequential
NgramTagger
p7
g2
Ntp8
Rp9
(dp10
S'_taggers'
p11
(lp12
g9
ag0
(g7
g2
Ntp13
Rp14
(dp15
g11
(lp16
g14
ag0
(cnltk.tag.sequential
TrigramTagger
p17
g2
Ntp18
Rp19
(dp20
g11
(lp21
g19
ag0
(cnltk.tag.sequential
BigramTagger
p22
g2
Ntp23
Rp24
(dp25
g11
(lp26
g24
ag0
(cnltk.tag.sequential
UnigramTagger
p27
g2
Ntp28
Rp29
(dp30
g11
(lp31
g29
asS'_n'
p32
I1
sS'_context_to_tag'
p33
(dp34
S'and'
p35
S'O'
p36
sS'right'
p37
S'ORMTP-ORMRP'
p38
sS'be'
p39
S'OBTP'
p40
sS'wall'
p41
S'IRMRP'
p42
sS'laptop'
p43
S'OBTP'
p44
sS'move'
p45
S'IRMRP'
p46
sS'back'
p47
S'FURTP-IRMRP'
p48
sS'walk'
p49
S'ORMTP'
p50
sS'nightstand'
p51
S'OBTP-FURTP'
p52
sS'at'
p53
S'FURTP-IRMRP'
p54
sS'directly'
p55
S'OBTP-IRMRP'
p56
sS'in'
p57
S'OBTP-ORMTP'
p58
sS'go'
p59
S'ORMTP'
p60
sS'table'
p61
S'OBTP-FURTP'
p62
sS'find'
p63
S'OBTP'
p64
sS'are'
p65
S'FURTP-IRMRP'
p66
sS'halfway'
p67
S'IRMRP'
p68
sS'hit'
p69
g42
sS'again'
p70
S'IRMRP'
p71
sS"'ll"
p72
g64
sS'monitor'
p73
S'OBTP'
p74
sS'turn'
p75
S'ORMTP-ORMRP'
p76
sS'with'
p77
S'FURTP-FURRP'
p78
sS'top'
p79
S'OBTP-FURTP'
p80
sS'there'
p81
S'OBTP'
p82
sS'mug'
p83
g82
sS'couch'
p84
S'OBTP-FURTP-FURRP'
p85
sS'to'
p86
S'OBTP-ORMTP-ORMRP'
p87
sS'behind'
p88
S'OBTP-FURTP-FURRP'
p89
sS'take'
p90
S'ORMTP-ORMRP'
p91
sS'forward'
p92
g60
sS'you'
p93
g64
sS'was'
p94
S'OBTP'
p95
sS'until'
p96
S'IRMRP'
p97
sS'fork'
p98
g40
sS'then'
p99
g36
sS'll'
p100
S'OBTP'
p101
sS'door'
p102
S'ORMTP'
p103
sS'bed'
p104
S'OBTP-FURTP-FURRP'
p105
sS'living'
p106
S'OBTP-ORMTP'
p107
sS'far'
p108
S'OBTP-FURTP-IRMRP'
p109
sS'a'
p110
S'ORMTP-ORMRP'
p111
sS'statue'
p112
S'OBTP'
p113
sS'front'
p114
S'OBTP-FURTP-FURRP'
p115
sS'end'
p116
S'OBTP-IRMRP'
p117
sS'come'
p118
S'ORMTP'
p119
sS'by'
p120
S'OBTP-FURTP-FURRP'
p121
sS'is'
p122
g82
sS'case'
p123
g64
sS'on'
p124
S'OBTP-FURTP'
p125
sS'about'
p126
g68
sS'your'
p127
S'OBTP-IRMRP'
p128
sS'room'
p129
S'OBTP-ORMTP'
p130
sS'ahead'
p131
S'OBTP-IRMRP'
p132
sS'chairs'
p133
S'OBTP-FURTP-FURRP'
p134
sS'of'
p135
S'OBTP-FURTP-FURRP'
p136
sS'straight'
p137
S'ORMTP'
p138
sS'against'
p139
S'FURTP-IRMRP'
p140
sS'will'
p141
g40
sS'into'
p142
g119
sS'bedroom'
p143
S'OBTP-ORMTP'
p144
sS'enter'
p145
S'ORMTP'
p146
sS'through'
p147
g103
sS'the'
p148
g40
sS'glasses'
p149
g64
sS'side'
p150
S'OBTP-FURTP-IRMRP'
p151
sS'left'
p152
S'ORMTP-ORMRP'
p153
ssbasg32
I2
sg33
(dp154
((g80
tp155
g135
tp156
S'OBTP-FURTP'
p157
s((S'OBTP'
p158
tp159
S'the'
p160
tp161
g64
s((S'OBTP-ORMTP-ORMRP'
p162
tp163
S'at'
p164
tp165
S'OBTP-IRMRP'
p166
s((S'IRMRP'
p167
tp168
S'left'
p169
tp170
g167
s((g97
tp171
g65
tp172
g97
s((S'OBTP-FURTP-IRMRP'
p173
tp174
S'to'
p175
tp176
S'OBTP-FURTP-IRMRP'
p177
s((S'OBTP-IRMRP'
p178
tp179
g150
tp180
S'OBTP-IRMRP'
p181
s((g78
tp182
S'the'
p183
tp184
S'FURTP-FURRP'
p185
s((S'OBTP-FURTP-FURRP'
p186
tp187
S'at'
p188
tp189
S'OBTP-FURTP-IRMRP'
p190
s((S'ORMTP-ORMRP'
p191
tp192
S'on'
p193
tp194
S'ORMTP-ORMRP'
p195
s((S'OBTP-FURTP-FURRP'
p196
tp197
S'right'
p198
tp199
S'OBTP-FURTP-FURRP'
p200
s((S'OBTP-ORMTP'
p201
tp202
S'to'
p203
tp204
g87
s((g158
tp205
S'of'
p206
tp207
g158
s((g36
tp208
g49
tp209
g97
s((g36
tp210
S'turn'
p211
tp212
S'IRMRP'
p213
s((S'ORMTP'
p214
tp215
S'on'
p216
tp217
S'ORMTP-ORMRP'
p218
s((S'OBTP-IRMRP'
p219
tp220
S'on'
p221
tp222
S'OBTP-FURTP'
p223
s((S'OBTP-FURTP'
p224
tp225
S'in'
p226
tp227
S'OBTP-FURTP-FURRP'
p228
s((S'FURTP'
p229
tp230
S'table'
p231
tp232
g229
s((g128
tp233
S'left'
p234
tp235
S'OBTP-IRMRP'
p236
s((S'OBTP-IRMRP'
p237
tp238
S'room'
p239
tp240
S'OBTP-IRMRP'
p241
s((g132
tp242
g86
tp243
S'OBTP-IRMRP'
p244
s((tS'take'
p245
tp246
S'ORMTP-ORMRP'
p247
s((g167
tp248
S'go'
p249
tp250
g42
s((S'FURTP-IRMRP'
p251
tp252
S'you'
p253
tp254
S'FURTP-IRMRP'
p255
s((S'OBTP-FURTP-IRMRP'
p256
tp257
S'the'
p258
tp259
S'OBTP-FURTP-IRMRP'
p260
s((S'OBTP-FURTP'
p261
tp262
S'ahead'
p263
tp264
g173
s((S'OBTP-ORMTP-ORMRP'
p265
tp266
S'left'
p267
tp268
S'OBTP-ORMTP-ORMRP'
p269
s((S'FURTP-IRMRP'
p270
tp271
S'straight'
p272
tp273
S'FURTP-IRMRP'
p274
s((S'OBTP-FURTP-IRMRP'
p275
tp276
S'left'
p277
tp278
S'OBTP-FURTP-IRMRP'
p279
s((S'OBTP-FURTP-IRMRP'
p280
tp281
S'in'
p282
tp283
S'OBTP-FURTP-FURRP'
p284
s((S'ORMTP'
p285
tp286
S'go'
p287
tp288
S'IRMRP'
p289
s((g185
tp290
g133
tp291
S'FURTP-FURRP'
p292
s((g285
tp293
g110
tp294
g285
s((g36
tp295
S'left'
p296
tp297
g71
s((S'OBTP-IRMRP'
p298
tp299
S'wall'
p300
tp301
S'OBTP-IRMRP'
p302
s((g136
tp303
S'the'
p304
tp305
S'OBTP-FURTP-FURRP'
p306
s((g58
tp307
S'the'
p308
tp309
S'OBTP-ORMTP'
p310
s((g177
tp311
S'your'
p312
tp313
g275
s((S'FURTP-IRMRP'
p314
tp315
S'forward'
p316
tp317
S'FURTP-IRMRP'
p318
s((S'OBTP-ORMTP-ORMRP'
p319
tp320
S'in'
p321
tp322
S'OBTP-IRMRP'
p323
s((g60
tp324
g35
tp325
g60
s((S'OBTP-FURTP-IRMRP'
p326
tp327
S'wall'
p328
tp329
S'OBTP-FURTP-IRMRP'
p330
s((S'OBTP-FURTP'
p331
tp332
S'with'
p333
tp334
S'OBTP-FURTP-FURRP'
p335
s((S'FURTP'
p336
tp337
S'to'
p338
tp339
g336
s((S'OBTP-FURTP-FURRP'
p340
tp341
S'left'
p342
tp343
S'OBTP-FURTP-FURRP'
p344
s((S'ORMTP-ORMRP'
p345
tp346
S'and'
p347
tp348
g36
s((g125
tp349
S'the'
p350
tp351
S'OBTP-FURTP'
p352
s((g97
tp353
g47
tp354
g97
s((g260
tp355
S'right'
p356
tp357
S'OBTP-FURTP-IRMRP'
p358
s((S'FURTP-IRMRP'
p359
tp360
S'wall'
p361
tp362
S'FURTP-IRMRP'
p363
s((S'OBTP-IRMRP'
p364
tp365
g108
tp366
S'OBTP-IRMRP'
p367
s((g97
tp368
g53
tp369
g97
s((g213
tp370
S'right'
p371
tp372
g213
s((g158
tp373
S'top'
p374
tp375
g158
s((g97
tp376
S'you'
p377
tp378
g97
s((g40
tp379
g124
tp380
g125
s((S'OBTP-IRMRP'
p381
tp382
S'back'
p383
tp384
S'OBTP-IRMRP'
p385
s((g97
tp386
S'straight'
p387
tp388
g97
s((S'OBTP-FURTP-FURRP'
p389
tp390
S'table'
p391
tp392
S'OBTP-FURTP-FURRP'
p393
s((S'ORMTP-ORMRP'
p394
tp395
g129
tp396
g191
s((g117
tp397
S'of'
p398
tp399
S'OBTP-IRMRP'
p400
s((S'OBTP-FURTP'
p401
tp402
S'directly'
p403
tp404
S'OBTP-FURTP-IRMRP'
p405
s((g54
tp406
S'the'
p407
tp408
S'FURTP-IRMRP'
p409
s((g214
tp410
S'room'
p411
tp412
g214
s((S'OBTP'
p413
tp414
S'against'
p415
tp416
S'OBTP-IRMRP'
p417
s((S'OBTP-ORMTP'
p418
tp419
S'right'
p420
tp421
S'OBTP-ORMTP'
p422
s((g318
tp423
S'to'
p424
tp425
S'FURTP-IRMRP'
p426
s((g336
tp427
S'forward'
p428
tp429
g336
s((g336
tp430
S'the'
p431
tp432
g336
s((g36
tp433
S'go'
p434
tp435
S'IRMRP'
p436
s((S'OBTP-FURTP-IRMRP'
p437
tp438
S'end'
p439
tp440
S'OBTP-FURTP-IRMRP'
p441
s((S'ORMTP'
p442
tp443
S'then'
p444
tp445
g442
s((S'IRMTP'
p446
tp447
S'forward'
p448
tp449
g446
s((S'OBTP-IRMRP'
p450
tp451
S'the'
p452
tp453
S'OBTP-IRMRP'
p454
s((g285
tp455
S'right'
p456
tp457
g285
s((g195
tp458
S'the'
p459
tp460
S'ORMTP-ORMRP'
p461
s((g454
tp462
S'right'
p463
tp464
S'OBTP-IRMRP'
p465
s((S'OBTP-ORMTP-ORMRP'
p466
tp467
S'the'
p468
tp469
S'OBTP-ORMTP-ORMRP'
p470
s((g470
tp471
S'right'
p472
tp473
S'OBTP-ORMTP-ORMRP'
p474
s((S'OBTP-FURTP'
p475
tp476
S'at'
p477
tp478
S'OBTP-FURTP-IRMRP'
p479
s((g68
tp480
S'turn'
p481
tp482
g167
s((g269
tp483
S'on'
p484
tp485
S'OBTP-FURTP'
p486
s((g130
tp487
S'on'
p488
tp489
g466
s((S'OBTP-FURTP'
p490
tp491
S'against'
p492
tp493
S'OBTP-FURTP-IRMRP'
p494
s((S'ORMTP-ORMRP'
p495
tp496
S'go'
p497
tp498
S'IRMRP'
p499
s((g119
tp500
S'the'
p501
tp502
g214
s((S'OBTP-ORMTP-ORMRP'
p503
tp504
S'about'
p505
tp506
S'OBTP-IRMRP'
p507
s((g68
tp508
g57
tp509
g68
s((g499
tp510
S'forward'
p511
tp512
g499
s((S'OBTP-IRMRP'
p513
tp514
S'in'
p515
tp516
g219
s((g274
tp517
S'until'
p518
tp519
g251
s((g97
tp520
S'the'
p521
tp522
g97
s((S'OBTP-FURTP'
p523
tp524
S'back'
p525
tp526
S'OBTP-FURTP'
p527
s((g507
tp528
S'halfway'
p529
tp530
g513
s((g62
tp531
S'to'
p532
tp533
S'OBTP-FURTP-FURRP'
p534
ssbag29
asg32
I3
sg33
(dp535
((g265
g269
tp536
g484
tp537
g486
s((g66
g54
tp538
g407
tp539
g229
s((S'ORMTP-ORMRP'
p540
g36
tp541
S'walk'
p542
tp543
g97
s((g513
g219
tp544
g221
tp545
g223
s((S'ORMTP-ORMRP'
p546
g36
tp547
S'go'
p548
tp549
g436
s((S'OBTP-ORMTP'
p550
g201
tp551
g203
tp552
g87
s((g119
g119
tp553
g501
tp554
g214
s((S'IRMRP'
p555
g555
tp556
S'go'
p557
tp558
g42
s((g158
g158
tp559
g160
tp560
g64
s((g40
g40
tp561
g124
tp562
g125
s((S'ORMTP-ORMRP'
p563
g345
tp564
g347
tp565
g36
s((g345
S'ORMTP-ORMRP'
p566
tp567
S'the'
p568
tp569
S'OBTP'
p570
s((g418
g422
tp571
S'on'
p572
tp573
g466
s((S'IRMRP'
p574
g574
tp575
S'you'
p576
tp577
g97
s((S'ORMTP'
p578
g36
tp579
S'walk'
p580
tp581
S'FURTP-IRMRP'
p582
s((tg245
tp583
g247
s((S'ORMTP-ORMRP'
p584
S'ORMTP-ORMRP'
p585
tp586
S'go'
p587
tp588
g499
s((S'OBTP-ORMTP-ORMRP'
p589
S'OBTP-ORMTP-ORMRP'
p590
tp591
S'at'
p592
tp593
g166
s((S'ORMTP'
p594
g594
tp595
S'and'
p596
tp597
g60
s((g352
g62
tp598
g532
tp599
g534
ssbag24
ag29
asg32
I4
sg33
(dp600
((S'ORMTP'
p601
g563
g345
tp602
g347
tp603
g36
s((g594
g594
g36
tp604
S'walk'
p605
tp606
g582
s((g394
g191
g195
tp607
g459
tp608
g570
s((g507
g513
g219
tp609
g221
tp610
g223
s((g574
g574
g574
tp611
g576
tp612
g97
s((g119
g119
tp613
g501
tp614
g214
s((S'OBTP-ORMTP'
p615
g418
g422
tp616
g572
tp617
g466
s((S'ORMTP-ORMRP'
p618
g546
g36
tp619
g548
tp620
g436
s((g594
g594
g594
tp621
g596
tp622
g36
s((g125
g352
g62
tp623
g532
tp624
g534
s((S'ORMTP-ORMRP'
p625
g540
g36
tp626
g542
tp627
g97
s((g40
g40
g40
tp628
g124
tp629
g125
s((S'ORMTP-ORMRP'
p630
g584
g585
tp631
g587
tp632
g499
s((g158
g158
g158
tp633
g160
tp634
g64
s((S'OBTP-ORMTP-ORMRP'
p635
g589
g590
tp636
g592
tp637
g166
s((g36
g555
g555
tp638
g557
tp639
g314
s((S'OBTP-ORMTP'
p640
g550
g201
tp641
g203
tp642
g87
s((S'OBTP-ORMTP-ORMRP'
p643
g265
g269
tp644
g484
tp645
g486
s((tg245
tp646
g247
ssbag19
ag24
ag29
asg32
I5
sg33
(dp647
((S'ORMTP'
p648
g625
g540
g36
tp649
g542
tp650
g97
s((g40
g40
g40
g40
tp651
g124
tp652
g125
s((S'OBTP-ORMTP-ORMRP'
p653
S'OBTP-FURTP'
p654
S'OBTP-FURTP'
p655
S'OBTP-FURTP'
p656
tp657
S'to'
p658
tp659
S'OBTP-FURTP-FURRP'
p660
s((S'ORMTP'
p661
g618
g546
g36
tp662
g548
tp663
g436
s((S'OBTP-ORMTP'
p664
g635
g589
g590
tp665
g592
tp666
g166
s((g158
g158
g158
g158
tp667
g160
tp668
S'OBTP-FURTP'
p669
s((g119
g119
tp670
g501
tp671
g214
s((S'OBTP-ORMTP'
p672
g643
g265
g269
tp673
g484
tp674
g486
s((S'ORMTP'
p675
g630
g584
g585
tp676
g587
tp677
g499
s((g36
g36
S'IRMRP'
p678
g678
tp679
S'go'
p680
tp681
g314
s((g574
g574
g574
g574
tp682
g576
tp683
g42
s((g201
g615
g418
g422
tp684
g572
tp685
S'OBTP-ORMTP-ORMRP'
p686
s((g119
g394
g191
g195
tp687
g459
tp688
g570
s((S'OBTP'
p689
g125
g352
g62
tp690
g532
tp691
g256
s((S'OBTP-ORMTP'
p692
g640
g550
g201
tp693
g203
tp694
S'OBTP-ORMTP-ORMRP'
p695
s((g594
g594
g594
g36
tp696
g605
tp697
g582
s((g601
g601
g563
g345
tp698
g347
tp699
g36
s((g503
g507
g513
g219
tp700
g221
tp701
S'OBTP-IRMRP'
p702
s((tg245
tp703
g247
ssbsS'_rules'
p704
(g0
(cnltk.tag.brill
ProximateTagsRule
p705
g2
Ntp706
Rp707
(dp708
S'replacement_tag'
p709
S'FURTP-IRMRP'
p710
sS'original_tag'
p711
g97
sS'_ProximateTokensRule__hash'
p712
I8336663992473814085
sS'_conditions'
p713
((I1
I10
g479
tp714
tp715
sS'_ProximateTokensRule__repr'
p716
S'<ProximateTagsRule: IRMRP->FURTP-IRMRP if OBTP-FURTP-IRMRP in 1...10>'
p717
sbg0
(cnltk.tag.brill
ProximateWordsRule
p718
g2
Ntp719
Rp720
(dp721
g709
S'OBTP-FURTP-FURRP'
p722
sg711
g279
sg712
I-570462936146620881
sg713
((I1
I10
S'bed'
p723
tp724
tp725
sg716
S'<ProximateWordsRule: OBTP-FURTP-IRMRP->OBTP-FURTP-FURRP if bed in 1...10>'
p726
sbg0
(g705
g2
Ntp727
Rp728
(dp729
g709
S'OBTP-IRMRP'
p730
sg711
g352
sg712
I-1281410973686425450
sg713
((I1
I10
g153
tp731
tp732
sg716
S'<ProximateTagsRule: OBTP-FURTP->OBTP-IRMRP if ORMTP-ORMRP in 1...10>'
p733
sbg0
(g705
g2
Ntp734
Rp735
(dp736
g709
S'OBTP-IRMRP'
p737
sg711
g153
sg712
I1673408501578158005
sg713
((I-10
I-1
g74
tp738
tp739
sg716
S'<ProximateTagsRule: ORMTP-ORMRP->OBTP-IRMRP if OBTP in -10...-1>'
p740
sbg0
(g718
g2
Ntp741
Rp742
(dp743
g709
S'OBTP-FURTP-IRMRP'
p744
sg711
g200
sg712
I2311251724440018937
sg713
((I1
I10
S'behind'
p745
tp746
tp747
sg716
S'<ProximateWordsRule: OBTP-FURTP-FURRP->OBTP-FURTP-IRMRP if behind in 1...10>'
p748
sbg0
(g705
g2
Ntp749
Rp750
(dp751
g709
S'FURTP-IRMRP'
p752
sg711
g479
sg712
I8215628951073958402
sg713
((I-10
I-1
g710
tp753
tp754
sg716
S'<ProximateTagsRule: OBTP-FURTP-IRMRP->FURTP-IRMRP if FURTP-IRMRP in -10...-1>'
p755
sbg0
(g718
g2
Ntp756
Rp757
(dp758
g709
S'OBTP-FURTP-IRMRP'
p759
sg711
g306
sg712
I3119284531854110987
sg713
((I1
I2
S'far'
p760
tp761
tp762
sg716
S'<ProximateWordsRule: OBTP-FURTP-FURRP->OBTP-FURTP-IRMRP if far in 1...2>'
p763
sbg0
(g705
g2
Ntp764
Rp765
(dp766
g709
S'IRMRP'
p767
sg711
g318
sg712
I3095590351000605104
sg713
((I-4
I-4
g36
tp768
(I4
I4
g64
tp769
tp770
sg716
S'<ProximateTagsRule: FURTP-IRMRP->IRMRP if O in -4...-4 and OBTP in 4...4>'
p771
sbg0
(g718
g2
Ntp772
Rp773
(dp774
g709
S'OBTP-IRMRP'
p775
sg711
g352
sg712
I-67514167872091603
sg713
((I1
I2
S'far'
p776
tp777
tp778
sg716
S'<ProximateWordsRule: OBTP-FURTP->OBTP-IRMRP if far in 1...2>'
p779
sbg0
(g705
g2
Ntp780
Rp781
(dp782
g709
S'OBTP-IRMRP'
p783
sg711
g109
sg712
I7272585298306872508
sg713
((I-10
I-1
g775
tp784
tp785
sg716
S'<ProximateTagsRule: OBTP-FURTP-IRMRP->OBTP-IRMRP if OBTP-IRMRP in -10...-1>'
p786
sbg0
(g705
g2
Ntp787
Rp788
(dp789
g709
g158
sg711
g42
sg712
I-5808476677451634217
sg713
((I-1
I-1
g68
tp790
(I1
I1
g64
tp791
tp792
sg716
S'<ProximateTagsRule: IRMRP->OBTP if IRMRP in -1...-1 and OBTP in 1...1>'
p793
sbg0
(g705
g2
Ntp794
Rp795
(dp796
g709
S'FURTP'
p797
sg711
g710
sg712
I148214585574052316
sg713
((I-1
I-1
g710
tp798
(I1
I1
g62
tp799
tp800
sg716
S'<ProximateTagsRule: FURTP-IRMRP->FURTP if FURTP-IRMRP in -1...-1 and OBTP-FURTP in 1...1>'
p801
sbg0
(g705
g2
Ntp802
Rp803
(dp804
g709
S'FURTP'
p805
sg711
g426
sg712
I2776162457340721322
sg713
((I-5
I-5
g36
tp806
(I5
I5
g292
tp807
tp808
sg716
S'<ProximateTagsRule: FURTP-IRMRP->FURTP if O in -5...-5 and FURTP-FURRP in 5...5>'
p809
sbg0
(g705
g2
Ntp810
Rp811
(dp812
g709
S'OBTP-FURTP'
p813
sg711
g570
sg712
I750524775543688026
sg713
((I1
I2
g228
tp814
tp815
sg716
S'<ProximateTagsRule: OBTP->OBTP-FURTP if OBTP-FURTP-FURRP in 1...2>'
p816
sbg0
(g705
g2
Ntp817
Rp818
(dp819
g709
S'FURTP'
p820
sg711
g62
sg712
I-9098786494231028721
sg713
((I-1
I-1
g797
tp821
(I1
I1
g752
tp822
tp823
sg716
S'<ProximateTagsRule: OBTP-FURTP->FURTP if FURTP in -1...-1 and FURTP-IRMRP in 1...1>'
p824
sbg0
(g705
g2
Ntp825
Rp826
(dp827
g709
S'OBTP-FURTP'
p828
sg711
g737
sg712
I1476474800739743148
sg713
((I1
I3
g89
tp829
tp830
sg716
S'<ProximateTagsRule: OBTP-IRMRP->OBTP-FURTP if OBTP-FURTP-FURRP in 1...3>'
p831
sbtp832
sb.